target datalayout = "e-m:e-p270:32:32-p271:32:32-p272:64:64-i64:64-i128:128-f80:128-n8:16:32:64-S128"
target triple = "x86_64-pc-linux-gnu"

; Function Attrs: mustprogress nounwind uwtable
define hidden void @_ZN2cv11xfeatures2d10DAISY_ImplD1Ev(ptr noundef nonnull align 8 dereferenceable(3640) %0) unnamed_addr #8 align 2 {
  %2 = alloca ptr, align 8
  store ptr %0, ptr %2, align 8, !tbaa !18
  %3 = load ptr, ptr %2, align 8
  call void @_ZN2cv11xfeatures2d10DAISY_ImplD2Ev(ptr noundef nonnull align 8 dereferenceable(3640) %3, ptr noundef @_ZTTN2cv11xfeatures2d10DAISY_ImplE) #24
  call void @_ZN2cv9AlgorithmD2Ev(ptr noundef nonnull align 8 dereferenceable(8) %3) #24
  ret void
}

; Function Attrs: nounwind uwtable
define hidden void @_ZTv0_n24_N2cv11xfeatures2d10DAISY_ImplD1Ev(ptr noundef %0) unnamed_addr #11 align 2 {
  %2 = alloca ptr, align 8
  store ptr %0, ptr %2, align 8, !tbaa !18
  %3 = load ptr, ptr %2, align 8
  %4 = load ptr, ptr %3, align 8, !tbaa !110
  %5 = getelementptr inbounds i8, ptr %4, i64 -24
  %6 = load i64, ptr %5, align 8
  %7 = getelementptr inbounds i8, ptr %3, i64 %6
  tail call void @_ZN2cv11xfeatures2d10DAISY_ImplD1Ev(ptr noundef nonnull align 8 dereferenceable(3640) %7) #24
  ret void
}